; Function Attrs: nounwind uwtable
define internal ptr @sapi_fcgi_getenv(ptr noundef %0, i64 noundef %1) #0 {
  %3 = load ptr, ptr @sapi_globals, align 8, !tbaa !44
  %4 = trunc i64 %1 to i32
  %5 = tail call ptr @fcgi_getenv(ptr noundef %3, ptr noundef %0, i32 noundef %4) #29
  %.not = icmp eq ptr %5, null
  br i1 %.not, label %6, label %8

6:                                                ; preds = %2
  %7 = tail call ptr @getenv(ptr noundef %0) #29
  br label %8

8:                                                ; preds = %2, %6
  %.0 = phi ptr [ %7, %6 ], [ %5, %2 ]
  ret ptr %.0
}